target datalayout = "e-m:e-p270:32:32-p271:32:32-p272:64:64-i64:64-i128:128-f80:128-n8:16:32:64-S128"
target triple = "x86_64-pc-linux-gnu"

%"class.nanobind::handle" = type { ptr }
%"class.std::shared_ptr" = type { %"class.std::__shared_ptr" }
%"class.std::__shared_ptr" = type { ptr, %"class.std::__shared_count" }
%"class.std::__shared_count" = type { ptr }
%struct.Example = type { i32 }
%"struct.nanobind::detail::tuple.151" = type { %"struct.nanobind::detail::type_caster.152" }
%"struct.nanobind::detail::type_caster.152" = type { %"class.std::shared_ptr" }
%class.anon.187 = type { i8 }

; Function Attrs: mustprogress nounwind optsize uwtable
define linkonce_odr void @_ZNSt14__shared_countILN9__gnu_cxx12_Lock_policyE2EEC2Ev(ptr noundef nonnull align 8 dereferenceable(8) %0) unnamed_addr #8 comdat align 2 {
  %2 = alloca ptr, align 8
  store ptr %0, ptr %2, align 8, !tbaa !249
  %3 = load ptr, ptr %2, align 8
  %4 = getelementptr inbounds nuw %"class.std::__shared_count", ptr %3, i32 0, i32 0
  store ptr null, ptr %4, align 8, !tbaa !251
  ret void
}

; Function Attrs: mustprogress nounwind optsize uwtable
define linkonce_odr hidden noundef ptr @_ZNKSt12__shared_ptrI7ExampleLN9__gnu_cxx12_Lock_policyE2EE3getEv(ptr noundef nonnull align 8 dereferenceable(16) %0) #8 comdat align 2 {
  %2 = alloca ptr, align 8
  store ptr %0, ptr %2, align 8, !tbaa !237
  %3 = load ptr, ptr %2, align 8
  %4 = getelementptr inbounds nuw %"class.std::__shared_ptr", ptr %3, i32 0, i32 0
  %5 = load ptr, ptr %4, align 8, !tbaa !239
  ret ptr %5
}

; Function Attrs: mustprogress nounwind optsize uwtable
define linkonce_odr hidden void @_ZNSt12__shared_ptrI7ExampleLN9__gnu_cxx12_Lock_policyE2EEC2Ev(ptr noundef nonnull align 8 dereferenceable(16) %0) unnamed_addr #8 comdat align 2 {
  %2 = alloca ptr, align 8
  store ptr %0, ptr %2, align 8, !tbaa !237
  %3 = load ptr, ptr %2, align 8
  %4 = getelementptr inbounds nuw %"class.std::__shared_ptr", ptr %3, i32 0, i32 0
  store ptr null, ptr %4, align 8, !tbaa !239
  %5 = getelementptr inbounds nuw %"class.std::__shared_ptr", ptr %3, i32 0, i32 1
  call void @_ZNSt14__shared_countILN9__gnu_cxx12_Lock_policyE2EEC2Ev(ptr noundef nonnull align 8 dereferenceable(8) %5) #21
  ret void
}

; Function Attrs: mustprogress nounwind optsize uwtable
define linkonce_odr hidden void @_ZNSt12__shared_ptrI7ExampleLN9__gnu_cxx12_Lock_policyE2EED2Ev(ptr noundef nonnull align 8 dereferenceable(16) %0) unnamed_addr #8 comdat align 2 {
  %2 = alloca ptr, align 8
  store ptr %0, ptr %2, align 8, !tbaa !237
  %3 = load ptr, ptr %2, align 8
  %4 = getelementptr inbounds nuw %"class.std::__shared_ptr", ptr %3, i32 0, i32 1
  call void @_ZNSt14__shared_countILN9__gnu_cxx12_Lock_policyE2EED2Ev(ptr noundef nonnull align 8 dereferenceable(8) %4) #21
  ret void
}

; Function Attrs: mustprogress nounwind optsize uwtable
define linkonce_odr hidden noundef ptr @_ZNKSt19__shared_ptr_accessI7ExampleLN9__gnu_cxx12_Lock_policyE2ELb0ELb0EE6_M_getEv(ptr noundef nonnull align 1 dereferenceable(1) %0) #8 comdat align 2 {
  %2 = alloca ptr, align 8
  store ptr %0, ptr %2, align 8, !tbaa !356
  %3 = load ptr, ptr %2, align 8
  %4 = call noundef ptr @_ZNKSt12__shared_ptrI7ExampleLN9__gnu_cxx12_Lock_policyE2EE3getEv(ptr noundef nonnull align 8 dereferenceable(16) %3) #21
  ret ptr %4
}

; Function Attrs: mustprogress nounwind optsize uwtable
define linkonce_odr hidden void @_ZNSt10shared_ptrI7ExampleEC2Ev(ptr noundef nonnull align 8 dereferenceable(16) %0) unnamed_addr #8 comdat align 2 {
  %2 = alloca ptr, align 8
  store ptr %0, ptr %2, align 8, !tbaa !235
  %3 = load ptr, ptr %2, align 8
  call void @_ZNSt12__shared_ptrI7ExampleLN9__gnu_cxx12_Lock_policyE2EEC2Ev(ptr noundef nonnull align 8 dereferenceable(16) %3) #21
  ret void
}

; Function Attrs: inlinehint mustprogress nounwind optsize uwtable
define linkonce_odr hidden void @_ZN8nanobind6detail11type_casterISt10shared_ptrI7ExampleEiED2Ev(ptr noundef nonnull align 8 dereferenceable(16) %0) unnamed_addr #11 comdat align 2 {
  %2 = alloca ptr, align 8
  store ptr %0, ptr %2, align 8, !tbaa !299
  %3 = load ptr, ptr %2, align 8
  %4 = getelementptr inbounds nuw %"struct.nanobind::detail::type_caster.152", ptr %3, i32 0, i32 0
  call void @_ZNSt12__shared_ptrI7ExampleLN9__gnu_cxx12_Lock_policyE2EED2Ev(ptr noundef nonnull align 8 dereferenceable(16) %4) #21
  ret void
}

; Function Attrs: mustprogress nounwind optsize uwtable
define linkonce_odr hidden noundef ptr @_ZNKSt19__shared_ptr_accessI7ExampleLN9__gnu_cxx12_Lock_policyE2ELb0ELb0EEptEv(ptr noundef nonnull align 1 dereferenceable(1) %0) #8 comdat align 2 {
  %2 = alloca ptr, align 8
  store ptr %0, ptr %2, align 8, !tbaa !356
  %3 = load ptr, ptr %2, align 8
  %4 = call noundef ptr @_ZNKSt19__shared_ptr_accessI7ExampleLN9__gnu_cxx12_Lock_policyE2ELb0ELb0EE6_M_getEv(ptr noundef nonnull align 1 dereferenceable(1) %3) #21
  ret ptr %4
}

; Function Attrs: inlinehint mustprogress nounwind optsize uwtable
define linkonce_odr hidden void @_ZN8nanobind6detail11type_casterISt10shared_ptrI7ExampleEiEC2Ev(ptr noundef nonnull align 8 dereferenceable(16) %0) unnamed_addr #11 comdat align 2 {
  %2 = alloca ptr, align 8
  store ptr %0, ptr %2, align 8, !tbaa !299
  %3 = load ptr, ptr %2, align 8
  %4 = getelementptr inbounds nuw %"struct.nanobind::detail::type_caster.152", ptr %3, i32 0, i32 0
  call void @_ZNSt10shared_ptrI7ExampleEC2Ev(ptr noundef nonnull align 8 dereferenceable(16) %4) #21
  ret void
}

; Function Attrs: inlinehint mustprogress nounwind optsize uwtable
define linkonce_odr hidden void @_ZN8nanobind6detail5tupleIJNS0_11type_casterISt10shared_ptrI7ExampleEiEEEED2Ev(ptr noundef nonnull align 8 dereferenceable(16) %0) unnamed_addr #11 comdat align 2 {
  %2 = alloca ptr, align 8
  store ptr %0, ptr %2, align 8, !tbaa !308
  %3 = load ptr, ptr %2, align 8
  %4 = getelementptr inbounds nuw %"struct.nanobind::detail::tuple.151", ptr %3, i32 0, i32 0
  call void @_ZN8nanobind6detail11type_casterISt10shared_ptrI7ExampleEiED2Ev(ptr noundef nonnull align 8 dereferenceable(16) %4) #21
  ret void
}

; Function Attrs: alwaysinline mustprogress nounwind optsize uwtable
define linkonce_odr hidden noundef ptr @_ZNK8nanobind6handle3ptrEv(ptr noundef nonnull align 8 dereferenceable(8) %0) #5 comdat align 2 {
  %2 = alloca ptr, align 8
  store ptr %0, ptr %2, align 8, !tbaa !12
  %3 = load ptr, ptr %2, align 8
  %4 = getelementptr inbounds nuw %"class.nanobind::handle", ptr %3, i32 0, i32 0
  %5 = load ptr, ptr %4, align 8, !tbaa !14
  ret ptr %5
}

; Function Attrs: alwaysinline mustprogress nounwind optsize uwtable
define linkonce_odr hidden ptr @_ZN8nanobind6detail11type_casterIiiE8from_cppEiNS_9rv_policyEPNS0_12cleanup_listE(i32 noundef %0, i32 noundef %1, ptr noundef %2) #5 comdat align 2 personality ptr @__gxx_personality_v0 {
  %4 = alloca %"class.nanobind::handle", align 8
  %5 = alloca i32, align 4
  %6 = alloca i32, align 4
  %7 = alloca ptr, align 8
  store i32 %0, ptr %5, align 4, !tbaa !22
  store i32 %1, ptr %6, align 4, !tbaa !20
  store ptr %2, ptr %7, align 8, !tbaa !190
  %8 = load i32, ptr %5, align 4, !tbaa !22
  %9 = sext i32 %8 to i64
  %10 = invoke ptr @PyLong_FromLong(i64 noundef %9) #19
          to label %11 unwind label %15

11:                                               ; preds = %3
  invoke void @_ZN8nanobind6handleC2EPK7_object(ptr noundef nonnull align 8 dereferenceable(8) %4, ptr noundef %10) #19
          to label %12 unwind label %15

12:                                               ; preds = %11
  %13 = getelementptr inbounds nuw %"class.nanobind::handle", ptr %4, i32 0, i32 0
  %14 = load ptr, ptr %13, align 8
  ret ptr %14

15:                                               ; preds = %11, %3
  %16 = landingpad { ptr, i32 }
          catch ptr null
  %17 = extractvalue { ptr, i32 } %16, 0
  call void @__clang_call_terminate(ptr %17) #22
  unreachable
}

; Function Attrs: inlinehint mustprogress nounwind optsize uwtable
define internal noundef i32 @"_ZZL30nanobind_init_test_holders_extRN8nanobind7module_EENK3$_3clERSt10shared_ptrI7ExampleE"(ptr noundef nonnull align 1 dereferenceable(1) %0, ptr noundef nonnull align 8 dereferenceable(16) %1) #11 align 2 {
  %3 = alloca ptr, align 8
  %4 = alloca ptr, align 8
  store ptr %0, ptr %3, align 8, !tbaa !18
  store ptr %1, ptr %4, align 8, !tbaa !235
  %5 = load ptr, ptr %4, align 8, !tbaa !235
  %6 = call noundef ptr @_ZNKSt19__shared_ptr_accessI7ExampleLN9__gnu_cxx12_Lock_policyE2ELb0ELb0EEptEv(ptr noundef nonnull align 1 dereferenceable(1) %5) #21
  %7 = getelementptr inbounds nuw %struct.Example, ptr %6, i32 0, i32 0
  %8 = load i32, ptr %7, align 4, !tbaa !210
  ret i32 %8
}

; Function Attrs: mustprogress nounwind optsize uwtable
define linkonce_odr hidden noundef nonnull align 8 dereferenceable(16) ptr @_ZN8nanobind6detail11type_casterISt10shared_ptrI7ExampleEiEcvRS4_Ev(ptr noundef nonnull align 8 dereferenceable(16) %0) #8 comdat align 2 {
  %2 = alloca ptr, align 8
  store ptr %0, ptr %2, align 8, !tbaa !299
  %3 = load ptr, ptr %2, align 8
  %4 = getelementptr inbounds nuw %"struct.nanobind::detail::type_caster.152", ptr %3, i32 0, i32 0
  ret ptr %4
}

; Function Attrs: alwaysinline mustprogress nounwind optsize uwtable
define linkonce_odr hidden void @_ZN8nanobind6handleC2EPK7_object(ptr noundef nonnull align 8 dereferenceable(8) %0, ptr noundef %1) unnamed_addr #5 comdat align 2 {
  %3 = alloca ptr, align 8
  %4 = alloca ptr, align 8
  store ptr %0, ptr %3, align 8, !tbaa !12
  store ptr %1, ptr %4, align 8, !tbaa !3
  %5 = load ptr, ptr %3, align 8
  %6 = getelementptr inbounds nuw %"class.nanobind::handle", ptr %5, i32 0, i32 0
  %7 = load ptr, ptr %4, align 8, !tbaa !3
  store ptr %7, ptr %6, align 8, !tbaa !14
  ret void
}

; Function Attrs: alwaysinline mustprogress nounwind optsize uwtable
define linkonce_odr hidden noundef nonnull align 8 dereferenceable(16) ptr @_ZN8nanobind6detail5tupleIJNS0_11type_casterISt10shared_ptrI7ExampleEiEEEE3getILm0EEERDav(ptr noundef nonnull align 8 dereferenceable(16) %0) #5 comdat align 2 {
  %2 = alloca ptr, align 8
  store ptr %0, ptr %2, align 8, !tbaa !308
  %3 = load ptr, ptr %2, align 8
  %4 = getelementptr inbounds nuw %"struct.nanobind::detail::tuple.151", ptr %3, i32 0, i32 0
  ret ptr %4
}

; Function Attrs: mustprogress nounwind optsize uwtable
define linkonce_odr hidden void @_ZN8nanobind6detail5tupleIJNS0_11type_casterISt10shared_ptrI7ExampleEiEEEEC2Ev(ptr noundef nonnull align 8 dereferenceable(16) %0) unnamed_addr #8 comdat align 2 {
  %2 = alloca ptr, align 8
  store ptr %0, ptr %2, align 8, !tbaa !308
  %3 = load ptr, ptr %2, align 8
  %4 = getelementptr inbounds nuw %"struct.nanobind::detail::tuple.151", ptr %3, i32 0, i32 0
  call void @_ZN8nanobind6detail11type_casterISt10shared_ptrI7ExampleEiEC2Ev(ptr noundef nonnull align 8 dereferenceable(16) %4) #21
  ret void
}

; Function Attrs: alwaysinline mustprogress optsize uwtable
define internal noundef ptr @"_ZZN8nanobind6detail11func_createILb0ELb1EZL30nanobind_init_test_holders_extRNS_7module_EE3$_3iJRSt10shared_ptrI7ExampleEEJLm0EEJNS_5scopeENS_4nameEEEEP7_objectOT1_PFT2_DpT3_ESt16integer_sequenceImJXspT4_EEEDpRKT5_ENKUlPvPSC_PhNS_9rv_policyEPNS0_12cleanup_listEE_clESQ_SR_SS_ST_SV_"(ptr noundef nonnull align 1 dereferenceable(1) %0, ptr noundef %1, ptr noundef %2, ptr noundef %3, i32 noundef %4, ptr noundef %5) #3 align 2 personality ptr @__gxx_personality_v0 {
  %7 = alloca ptr, align 8
  %8 = alloca ptr, align 8
  %9 = alloca ptr, align 8
  %10 = alloca ptr, align 8
  %11 = alloca ptr, align 8
  %12 = alloca i32, align 4
  %13 = alloca ptr, align 8
  %14 = alloca ptr, align 8
  %15 = alloca %"struct.nanobind::detail::tuple.151", align 8
  %16 = alloca %"class.nanobind::handle", align 8
  %17 = alloca ptr, align 8
  %18 = alloca i32, align 4
  %19 = alloca i32, align 4
  %20 = alloca ptr, align 8
  %21 = alloca %"class.nanobind::handle", align 8
  store ptr %0, ptr %8, align 8, !tbaa !18
  store ptr %1, ptr %9, align 8, !tbaa !18
  store ptr %2, ptr %10, align 8, !tbaa !188
  store ptr %3, ptr %11, align 8, !tbaa !34
  store i32 %4, ptr %12, align 4, !tbaa !20
  store ptr %5, ptr %13, align 8, !tbaa !190
  call void @llvm.lifetime.start.p0(i64 8, ptr %14) #20
  %22 = load ptr, ptr %9, align 8, !tbaa !18
  store ptr %22, ptr %14, align 8, !tbaa !366
  call void @llvm.lifetime.start.p0(i64 16, ptr %15) #20
  call void @_ZN8nanobind6detail5tupleIJNS0_11type_casterISt10shared_ptrI7ExampleEiEEEEC2Ev(ptr noundef nonnull align 8 dereferenceable(16) %15) #21
  %23 = call noundef nonnull align 8 dereferenceable(16) ptr @_ZN8nanobind6detail5tupleIJNS0_11type_casterISt10shared_ptrI7ExampleEiEEEE3getILm0EEERDav(ptr noundef nonnull align 8 dereferenceable(16) %15) #19
  %24 = load ptr, ptr %10, align 8, !tbaa !188
  %25 = getelementptr inbounds nuw ptr, ptr %24, i64 0
  %26 = load ptr, ptr %25, align 8, !tbaa !3
  invoke void @_ZN8nanobind6handleC2EPK7_object(ptr noundef nonnull align 8 dereferenceable(8) %16, ptr noundef %26) #19
          to label %27 unwind label %36

27:                                               ; preds = %6
  %28 = load ptr, ptr %11, align 8, !tbaa !34
  %29 = getelementptr inbounds nuw i8, ptr %28, i64 0
  %30 = load i8, ptr %29, align 1, !tbaa !19
  %31 = load ptr, ptr %13, align 8, !tbaa !190
  %32 = getelementptr inbounds nuw %"class.nanobind::handle", ptr %16, i32 0, i32 0
  %33 = load ptr, ptr %32, align 8
  %34 = call noundef zeroext i1 @_ZN8nanobind6detail11type_casterISt10shared_ptrI7ExampleEiE11from_pythonENS_6handleEhPNS0_12cleanup_listE(ptr noundef nonnull align 8 dereferenceable(16) %23, ptr %33, i8 noundef zeroext %30, ptr noundef %31) #21
  br i1 %34, label %40, label %35

35:                                               ; preds = %27
  store ptr inttoptr (i64 1 to ptr), ptr %7, align 8
  store i32 1, ptr %19, align 4
  br label %57

36:                                               ; preds = %6
  %37 = landingpad { ptr, i32 }
          cleanup
  %38 = extractvalue { ptr, i32 } %37, 0
  store ptr %38, ptr %17, align 8
  %39 = extractvalue { ptr, i32 } %37, 1
  store i32 %39, ptr %18, align 4
  br label %59

40:                                               ; preds = %27
  call void @llvm.lifetime.start.p0(i64 8, ptr %20) #20
  call void @llvm.lifetime.start.p0(i64 8, ptr %21) #20
  %41 = load ptr, ptr %14, align 8, !tbaa !366
  %42 = call noundef nonnull align 8 dereferenceable(16) ptr @_ZN8nanobind6detail5tupleIJNS0_11type_casterISt10shared_ptrI7ExampleEiEEEE3getILm0EEERDav(ptr noundef nonnull align 8 dereferenceable(16) %15) #19
  %43 = invoke noundef nonnull align 8 dereferenceable(16) ptr @_ZN8nanobind6detail11type_casterISt10shared_ptrI7ExampleEiEcvRS4_Ev(ptr noundef nonnull align 8 dereferenceable(16) %42) #19
          to label %44 unwind label %53

44:                                               ; preds = %40
  %45 = invoke noundef i32 @"_ZZL30nanobind_init_test_holders_extRN8nanobind7module_EENK3$_3clERSt10shared_ptrI7ExampleE"(ptr noundef nonnull align 1 dereferenceable(1) %41, ptr noundef nonnull align 8 dereferenceable(16) %43) #19
          to label %46 unwind label %53

46:                                               ; preds = %44
  %47 = load i32, ptr %12, align 4, !tbaa !20
  %48 = load ptr, ptr %13, align 8, !tbaa !190
  %49 = call ptr @_ZN8nanobind6detail11type_casterIiiE8from_cppEiNS_9rv_policyEPNS0_12cleanup_listE(i32 noundef %45, i32 noundef %47, ptr noundef %48) #21
  %50 = getelementptr inbounds nuw %"class.nanobind::handle", ptr %21, i32 0, i32 0
  store ptr %49, ptr %50, align 8
  %51 = call noundef ptr @_ZNK8nanobind6handle3ptrEv(ptr noundef nonnull align 8 dereferenceable(8) %21) #19
  store ptr %51, ptr %20, align 8, !tbaa !3
  call void @llvm.lifetime.end.p0(i64 8, ptr %21) #20
  %52 = load ptr, ptr %20, align 8, !tbaa !3
  store ptr %52, ptr %7, align 8
  store i32 1, ptr %19, align 4
  call void @llvm.lifetime.end.p0(i64 8, ptr %20) #20
  br label %57

53:                                               ; preds = %44, %40
  %54 = landingpad { ptr, i32 }
          cleanup
  %55 = extractvalue { ptr, i32 } %54, 0
  store ptr %55, ptr %17, align 8
  %56 = extractvalue { ptr, i32 } %54, 1
  store i32 %56, ptr %18, align 4
  call void @llvm.lifetime.end.p0(i64 8, ptr %21) #20
  call void @llvm.lifetime.end.p0(i64 8, ptr %20) #20
  br label %59

57:                                               ; preds = %46, %35
  call void @_ZN8nanobind6detail5tupleIJNS0_11type_casterISt10shared_ptrI7ExampleEiEEEED2Ev(ptr noundef nonnull align 8 dereferenceable(16) %15) #21
  call void @llvm.lifetime.end.p0(i64 16, ptr %15) #20
  call void @llvm.lifetime.end.p0(i64 8, ptr %14) #20
  %58 = load ptr, ptr %7, align 8
  ret ptr %58

59:                                               ; preds = %53, %36
  call void @_ZN8nanobind6detail5tupleIJNS0_11type_casterISt10shared_ptrI7ExampleEiEEEED2Ev(ptr noundef nonnull align 8 dereferenceable(16) %15) #21
  call void @llvm.lifetime.end.p0(i64 16, ptr %15) #20
  call void @llvm.lifetime.end.p0(i64 8, ptr %14) #20
  br label %60

60:                                               ; preds = %59
  %61 = load ptr, ptr %17, align 8
  %62 = load i32, ptr %18, align 4
  %63 = insertvalue { ptr, i32 } poison, ptr %61, 0
  %64 = insertvalue { ptr, i32 } %63, i32 %62, 1
  resume { ptr, i32 } %64
}

; Function Attrs: inlinehint mustprogress optsize uwtable
define internal noundef ptr @"_ZZN8nanobind6detail11func_createILb0ELb1EZL30nanobind_init_test_holders_extRNS_7module_EE3$_3iJRSt10shared_ptrI7ExampleEEJLm0EEJNS_5scopeENS_4nameEEEEP7_objectOT1_PFT2_DpT3_ESt16integer_sequenceImJXspT4_EEEDpRKT5_ENUlPvPSC_PhNS_9rv_policyEPNS0_12cleanup_listEE_8__invokeESQ_SR_SS_ST_SV_"(ptr noundef %0, ptr noundef %1, ptr noundef %2, i32 noundef %3, ptr noundef %4) #9 align 2 {
  %6 = alloca ptr, align 8
  %7 = alloca ptr, align 8
  %8 = alloca ptr, align 8
  %9 = alloca i32, align 4
  %10 = alloca ptr, align 8
  %11 = alloca %class.anon.187, align 1
  store ptr %0, ptr %6, align 8, !tbaa !18
  store ptr %1, ptr %7, align 8, !tbaa !188
  store ptr %2, ptr %8, align 8, !tbaa !34
  store i32 %3, ptr %9, align 4, !tbaa !20
  store ptr %4, ptr %10, align 8, !tbaa !190
  %12 = load ptr, ptr %6, align 8, !tbaa !18
  %13 = load ptr, ptr %7, align 8, !tbaa !188
  %14 = load ptr, ptr %8, align 8, !tbaa !34
  %15 = load i32, ptr %9, align 4, !tbaa !20
  %16 = load ptr, ptr %10, align 8, !tbaa !190
  %17 = call noundef ptr @"_ZZN8nanobind6detail11func_createILb0ELb1EZL30nanobind_init_test_holders_extRNS_7module_EE3$_3iJRSt10shared_ptrI7ExampleEEJLm0EEJNS_5scopeENS_4nameEEEEP7_objectOT1_PFT2_DpT3_ESt16integer_sequenceImJXspT4_EEEDpRKT5_ENKUlPvPSC_PhNS_9rv_policyEPNS0_12cleanup_listEE_clESQ_SR_SS_ST_SV_"(ptr noundef nonnull align 1 dereferenceable(1) %11, ptr noundef %12, ptr noundef %13, ptr noundef %14, i32 noundef %15, ptr noundef %16) #19
  ret ptr %17
}